; Function Attrs: mustprogress nofree norecurse nosync nounwind willreturn memory(none) uwtable
define noundef zeroext i1 @_ZN3net24IsClientCertificateErrorEi(i32 noundef %0) local_unnamed_addr #2 {
  %switch.tableidx = add i32 %0, 141
  %2 = icmp ult i32 %switch.tableidx, 25
  %switch.cast = trunc i32 %switch.tableidx to i25
  %switch.downshift = lshr i25 -16777023, %switch.cast
  %switch.masked = trunc i25 %switch.downshift to i1
  %.0 = select i1 %2, i1 %switch.masked, i1 false
  ret i1 %.0
}